; ModuleID = 'source-C-CXX/35/1629.c'
source_filename = "source-C-CXX/35/1629.c"
target datalayout = "e-m:e-p270:32:32-p271:32:32-p272:64:64-i64:64-f80:128-n8:16:32:64-S128"
target triple = "x86_64-pc-linux-gnu"

@.str = private unnamed_addr constant [6 x i8] c"%s %s\00", align 1
@str.3 = private unnamed_addr constant [4 x i8] c"YES\00", align 1
@str.4 = private unnamed_addr constant [3 x i8] c"NO\00", align 1

; Function Attrs: nofree nounwind sspstrong uwtable
define dso_local i32 @main() local_unnamed_addr #0 {
  %1 = alloca [10000 x i8], align 16
  %2 = alloca [10000 x i8], align 16
  %3 = getelementptr inbounds [10000 x i8], [10000 x i8]* %1, i64 0, i64 0
  call void @llvm.lifetime.start.p0i8(i64 10000, i8* nonnull %3) #6
  %4 = getelementptr inbounds [10000 x i8], [10000 x i8]* %2, i64 0, i64 0
  call void @llvm.lifetime.start.p0i8(i64 10000, i8* nonnull %4) #6
  %5 = call i32 (i8*, ...) @__isoc99_scanf(i8* getelementptr inbounds ([6 x i8], [6 x i8]* @.str, i64 0, i64 0), i8* nonnull %3, i8* nonnull %4)
  %6 = call i64 @strlen(i8* noundef nonnull %3) #7
  %7 = trunc i64 %6 to i32
  %8 = call i64 @strlen(i8* noundef nonnull %4) #7
  %9 = trunc i64 %8 to i32
  %10 = icmp eq i32 %7, %9
  br i1 %10, label %11, label %79

11:                                               ; preds = %0
  %12 = icmp sgt i32 %7, 0
  br i1 %12, label %13, label %79

13:                                               ; preds = %11
  %14 = and i64 %6, 4294967295
  br label %15

15:                                               ; preds = %13, %30
  %16 = phi i64 [ 0, %13 ], [ %31, %30 ]
  %17 = getelementptr inbounds [10000 x i8], [10000 x i8]* %1, i64 0, i64 %16
  %18 = load i8, i8* %17, align 1, !tbaa !5
  br label %19

19:                                               ; preds = %15, %24
  %20 = phi i64 [ 0, %15 ], [ %25, %24 ]
  %21 = getelementptr inbounds [10000 x i8], [10000 x i8]* %2, i64 0, i64 %20
  %22 = load i8, i8* %21, align 1, !tbaa !5
  %23 = icmp eq i8 %18, %22
  br i1 %23, label %27, label %24

24:                                               ; preds = %19
  %25 = add nuw nsw i64 %20, 1
  %26 = icmp eq i64 %25, %14
  br i1 %26, label %30, label %19, !llvm.loop !8

27:                                               ; preds = %19
  %28 = and i64 %20, 4294967295
  %29 = getelementptr inbounds [10000 x i8], [10000 x i8]* %2, i64 0, i64 %28
  store i8 32, i8* %29, align 1, !tbaa !5
  br label %30

30:                                               ; preds = %24, %27
  %31 = add nuw nsw i64 %16, 1
  %32 = icmp eq i64 %31, %14
  br i1 %32, label %33, label %15, !llvm.loop !10

33:                                               ; preds = %30
  br i1 %12, label %34, label %79

34:                                               ; preds = %33
  %35 = and i64 %6, 4294967295
  %36 = icmp ult i64 %14, 8
  br i1 %36, label %62, label %37

37:                                               ; preds = %34
  %38 = and i64 %6, 7
  %39 = sub nsw i64 %14, %38
  br label %40

40:                                               ; preds = %40, %37
  %41 = phi i64 [ 0, %37 ], [ %56, %40 ]
  %42 = phi <4 x i32> [ zeroinitializer, %37 ], [ %54, %40 ]
  %43 = phi <4 x i32> [ zeroinitializer, %37 ], [ %55, %40 ]
  %44 = getelementptr inbounds [10000 x i8], [10000 x i8]* %2, i64 0, i64 %41
  %45 = bitcast i8* %44 to <4 x i8>*
  %46 = load <4 x i8>, <4 x i8>* %45, align 8, !tbaa !5
  %47 = getelementptr inbounds i8, i8* %44, i64 4
  %48 = bitcast i8* %47 to <4 x i8>*
  %49 = load <4 x i8>, <4 x i8>* %48, align 4, !tbaa !5
  %50 = icmp ne <4 x i8> %46, <i8 32, i8 32, i8 32, i8 32>
  %51 = icmp ne <4 x i8> %49, <i8 32, i8 32, i8 32, i8 32>
  %52 = zext <4 x i1> %50 to <4 x i32>
  %53 = zext <4 x i1> %51 to <4 x i32>
  %54 = add <4 x i32> %42, %52
  %55 = add <4 x i32> %43, %53
  %56 = add nuw i64 %41, 8
  %57 = icmp eq i64 %56, %39
  br i1 %57, label %58, label %40, !llvm.loop !11

58:                                               ; preds = %40
  %59 = add <4 x i32> %55, %54
  %60 = call i32 @llvm.vector.reduce.add.v4i32(<4 x i32> %59)
  %61 = icmp eq i64 %38, 0
  br i1 %61, label %75, label %62

62:                                               ; preds = %34, %58
  %63 = phi i64 [ 0, %34 ], [ %39, %58 ]
  %64 = phi i32 [ 0, %34 ], [ %60, %58 ]
  br label %65

65:                                               ; preds = %62, %65
  %66 = phi i64 [ %73, %65 ], [ %63, %62 ]
  %67 = phi i32 [ %72, %65 ], [ %64, %62 ]
  %68 = getelementptr inbounds [10000 x i8], [10000 x i8]* %2, i64 0, i64 %66
  %69 = load i8, i8* %68, align 1, !tbaa !5
  %70 = icmp ne i8 %69, 32
  %71 = zext i1 %70 to i32
  %72 = add nuw nsw i32 %67, %71
  %73 = add nuw nsw i64 %66, 1
  %74 = icmp eq i64 %73, %35
  br i1 %74, label %75, label %65, !llvm.loop !13

75:                                               ; preds = %65, %58
  %76 = phi i32 [ %60, %58 ], [ %72, %65 ]
  %77 = icmp eq i32 %76, 0
  %78 = select i1 %77, i8* getelementptr inbounds ([4 x i8], [4 x i8]* @str.3, i64 0, i64 0), i8* getelementptr inbounds ([3 x i8], [3 x i8]* @str.4, i64 0, i64 0)
  br label %79

79:                                               ; preds = %75, %33, %11, %0
  %80 = phi i8* [ getelementptr inbounds ([3 x i8], [3 x i8]* @str.4, i64 0, i64 0), %0 ], [ getelementptr inbounds ([4 x i8], [4 x i8]* @str.3, i64 0, i64 0), %11 ], [ getelementptr inbounds ([4 x i8], [4 x i8]* @str.3, i64 0, i64 0), %33 ], [ %78, %75 ]
  %81 = call i32 @puts(i8* nonnull dereferenceable(1) %80)
  call void @llvm.lifetime.end.p0i8(i64 10000, i8* nonnull %4) #6
  call void @llvm.lifetime.end.p0i8(i64 10000, i8* nonnull %3) #6
  ret i32 0
}

; Function Attrs: argmemonly mustprogress nofree nosync nounwind willreturn
declare void @llvm.lifetime.start.p0i8(i64 immarg, i8* nocapture) #1

; Function Attrs: nofree nounwind
declare noundef i32 @__isoc99_scanf(i8* nocapture noundef readonly, ...) local_unnamed_addr #2

; Function Attrs: argmemonly mustprogress nofree nounwind readonly willreturn
declare i64 @strlen(i8* nocapture) local_unnamed_addr #3

; Function Attrs: argmemonly mustprogress nofree nosync nounwind willreturn
declare void @llvm.lifetime.end.p0i8(i64 immarg, i8* nocapture) #1

; Function Attrs: nofree nounwind
declare noundef i32 @puts(i8* nocapture noundef readonly) local_unnamed_addr #4

; Function Attrs: nofree nosync nounwind readnone willreturn
declare i32 @llvm.vector.reduce.add.v4i32(<4 x i32>) #5


!llvm.module.flags = !{!0, !1, !2, !3}
!llvm.ident = !{!4}

!0 = !{i32 1, !"wchar_size", i32 4}
!1 = !{i32 7, !"PIC Level", i32 2}
!2 = !{i32 7, !"PIE Level", i32 2}
!3 = !{i32 7, !"uwtable", i32 1}
!4 = !{!"clang version 13.0.0"}
!5 = !{!6, !6, i64 0}
!6 = !{!"omnipotent char", !7, i64 0}
!7 = !{!"Simple C/C++ TBAA"}
!8 = distinct !{!8, !9}
!9 = !{!"llvm.loop.mustprogress"}
!10 = distinct !{!10, !9}
!11 = distinct !{!11, !9, !12}
!12 = !{!"llvm.loop.isvectorized", i32 1}
!13 = distinct !{!13, !9, !14, !12}
!14 = !{!"llvm.loop.unroll.runtime.disable"}
